-----BEGIN EC PARAMETERS-----
BggqhkjOPQMBBw==
-----END EC PARAMETERS-----
-----BEGIN EC PRIVATE KEY-----
MHcCAQEEIP+uXIm0k7ikSOn3tAjJ/Ejs9ia3L5xey5GpSuGNyozLoAoGCCqGSM49
AwEHoUQDQgAEr1ANnMGGAkBo3U1WOGXGUaVSt8aKJOohpVUPjRc4RBRWH7GS7qm0
r152KVWkFVMsAlNg8eRkjdkL4kc7A4oGAw==
-----END EC PRIVATE KEY-----
Certificate:
    Data:
        Version: 3 (0x2)
        Serial Number:
            63:64:8b:a2:e8:5d:d4:5f:ae:0e:e9:cb:09:3d:c8:1f:10:70:9d:c4
        Signature Algorithm: ecdsa-with-SHA256
        Issuer: C = FR, L = Limoges, O = CRYPTIS, OU = SecuTIC, CN = localhost
        Validity
            Not Before: Apr 23 11:17:01 2024 GMT
            Not After : Apr 21 11:17:01 2034 GMT
        Subject: C = FR, L = Limoges, O = CRYPTIS, OU = SecuTIC, CN = localhost
        Subject Public Key Info:
            Public Key Algorithm: id-ecPublicKey
                Public-Key: (256 bit)
                pub:
                    04:af:50:0d:9c:c1:86:02:40:68:dd:4d:56:38:65:
                    c6:51:a5:52:b7:c6:8a:24:ea:21:a5:55:0f:8d:17:
                    38:44:14:56:1f:b1:92:ee:a9:b4:af:5e:76:29:55:
                    a4:15:53:2c:02:53:60:f1:e4:64:8d:d9:0b:e2:47:
                    3b:03:8a:06:03
                ASN1 OID: prime256v1
                NIST CURVE: P-256
        X509v3 extensions:
            X509v3 Basic Constraints: critical
                CA:FALSE
    Signature Algorithm: ecdsa-with-SHA256
         30:46:02:21:00:c2:9a:c8:65:63:a3:99:ed:90:d8:6f:ae:97:
         10:40:3c:16:cf:30:4e:27:27:f4:a0:c2:6c:79:3c:d3:f3:af:
         88:02:21:00:d2:3d:45:5b:22:1f:e2:49:8a:d8:1d:eb:fa:be:
         7b:f3:9e:64:e9:ae:4f:de:81:8f:bf:72:bf:3b:c7:a0:ff:36
-----BEGIN CERTIFICATE-----
MIIBwTCCAWagAwIBAgIUY2SLouhd1F+uDunLCT3IHxBwncQwCgYIKoZIzj0EAwIw
VzELMAkGA1UEBhMCRlIxEDAOBgNVBAcMB0xpbW9nZXMxEDAOBgNVBAoMB0NSWVBU
SVMxEDAOBgNVBAsMB1NlY3VUSUMxEjAQBgNVBAMMCWxvY2FsaG9zdDAeFw0yNDA0
MjMxMTE3MDFaFw0zNDA0MjExMTE3MDFaMFcxCzAJBgNVBAYTAkZSMRAwDgYDVQQH
DAdMaW1vZ2VzMRAwDgYDVQQKDAdDUllQVElTMRAwDgYDVQQLDAdTZWN1VElDMRIw
EAYDVQQDDAlsb2NhbGhvc3QwWTATBgcqhkjOPQIBBggqhkjOPQMBBwNCAASvUA2c
wYYCQGjdTVY4ZcZRpVK3xook6iGlVQ+NFzhEFFYfsZLuqbSvXnYpVaQVUywCU2Dx
5GSN2QviRzsDigYDoxAwDjAMBgNVHRMBAf8EAjAAMAoGCCqGSM49BAMCA0kAMEYC
IQDCmshlY6OZ7ZDYb66XEEA8Fs8wTicn9KDCbHk80/OviAIhANI9RVsiH+JJitgd
6/q+e/OeZOmuT96Bj79yvzvHoP82
-----END CERTIFICATE-----
