Certificate:
    Data:
        Version: 3 (0x2)
        Serial Number:
            63:64:8b:a2:e8:5d:d4:5f:ae:0e:e9:cb:09:3d:c8:1f:10:70:9d:c8
        Signature Algorithm: ecdsa-with-SHA256
        Issuer: C = FR, L = Limoges, O = CRYPTIS, OU = SecuTIC, CN = localhost
        Validity
            Not Before: Apr 23 11:38:55 2024 GMT
            Not After : Apr 21 11:38:55 2034 GMT
        Subject: C = FR, L = Limoges, O = CRYPTIS, OU = SecuTIC, CN = localhost
        Subject Public Key Info:
            Public Key Algorithm: id-ecPublicKey
                Public-Key: (256 bit)
                pub:
                    04:5f:68:86:80:53:40:2a:4b:0f:8a:90:d3:ac:4b:
                    55:f4:02:ec:10:af:3a:21:da:9e:0d:9f:f0:63:f4:
                    2f:55:c5:34:92:25:3e:b5:ce:1f:f9:9c:15:ed:34:
                    07:70:da:e7:a3:96:d8:ce:72:3d:87:ac:13:f1:91:
                    e3:48:d2:7a:d5
                ASN1 OID: prime256v1
                NIST CURVE: P-256
        X509v3 extensions:
            X509v3 Basic Constraints: critical
                CA:FALSE
    Signature Algorithm: ecdsa-with-SHA256
         30:44:02:20:37:cc:72:e8:85:f0:d1:6d:b2:17:47:be:7e:38:
         c4:37:72:d4:98:15:58:34:13:f4:cc:4c:c5:9c:51:94:67:9c:
         02:20:7b:07:0d:ea:4c:3f:84:38:31:91:a8:ae:56:25:b6:63:
         92:4c:79:e0:67:0e:c6:85:d6:0e:b5:ec:64:52:66:fe
-----BEGIN CERTIFICATE-----
MIIBvzCCAWagAwIBAgIUY2SLouhd1F+uDunLCT3IHxBwncgwCgYIKoZIzj0EAwIw
VzELMAkGA1UEBhMCRlIxEDAOBgNVBAcMB0xpbW9nZXMxEDAOBgNVBAoMB0NSWVBU
SVMxEDAOBgNVBAsMB1NlY3VUSUMxEjAQBgNVBAMMCWxvY2FsaG9zdDAeFw0yNDA0
MjMxMTM4NTVaFw0zNDA0MjExMTM4NTVaMFcxCzAJBgNVBAYTAkZSMRAwDgYDVQQH
DAdMaW1vZ2VzMRAwDgYDVQQKDAdDUllQVElTMRAwDgYDVQQLDAdTZWN1VElDMRIw
EAYDVQQDDAlsb2NhbGhvc3QwWTATBgcqhkjOPQIBBggqhkjOPQMBBwNCAARfaIaA
U0AqSw+KkNOsS1X0AuwQrzoh2p4Nn/Bj9C9VxTSSJT61zh/5nBXtNAdw2uejltjO
cj2HrBPxkeNI0nrVoxAwDjAMBgNVHRMBAf8EAjAAMAoGCCqGSM49BAMCA0cAMEQC
IDfMcuiF8NFtshdHvn44xDdy1JgVWDQT9MxMxZxRlGecAiB7Bw3qTD+EODGRqK5W
JbZjkkx54GcOxoXWDrXsZFJm/g==
-----END CERTIFICATE-----
