Certificate Request:
    Data:
        Version: 1 (0x0)
        Subject: C = FR, L = Limoges, O = CRYPTIS, OU = SecuTIC, CN = localhost
        Subject Public Key Info:
            Public Key Algorithm: id-ecPublicKey
                Public-Key: (256 bit)
                pub:
                    04:10:19:48:f0:b4:41:a8:48:39:5b:01:29:35:df:
                    b9:fb:80:a4:d7:19:a8:7c:d3:df:80:0b:5f:d4:bf:
                    ae:38:4e:04:89:c4:49:dd:ff:29:ed:a9:79:5b:1e:
                    90:cb:2b:5c:3c:ab:8c:fa:41:12:c0:6b:a7:28:25:
                    a1:81:bf:50:e4
                ASN1 OID: prime256v1
                NIST CURVE: P-256
        Attributes:
        Requested Extensions:
            X509v3 Basic Constraints: 
                CA:FALSE
    Signature Algorithm: ecdsa-with-SHA256
         30:45:02:21:00:8f:05:c5:ae:20:69:5c:93:bd:e7:c5:d4:df:
         41:8e:6c:d7:17:a3:2e:81:63:b2:48:7e:fd:35:37:36:ed:2b:
         0f:02:20:61:8f:98:79:64:2b:a5:d3:ab:5d:e6:68:6e:c5:47:
         6a:bc:4e:c8:d6:26:56:0b:58:34:3a:58:e3:35:85:8c:e7
-----BEGIN CERTIFICATE REQUEST-----
MIIBLjCB1QIBADBXMQswCQYDVQQGEwJGUjEQMA4GA1UEBwwHTGltb2dlczEQMA4G
A1UECgwHQ1JZUFRJUzEQMA4GA1UECwwHU2VjdVRJQzESMBAGA1UEAwwJbG9jYWxo
b3N0MFkwEwYHKoZIzj0CAQYIKoZIzj0DAQcDQgAEEBlI8LRBqEg5WwEpNd+5+4Ck
1xmofNPfgAtf1L+uOE4EicRJ3f8p7al5Wx6QyytcPKuM+kESwGunKCWhgb9Q5KAc
MBoGCSqGSIb3DQEJDjENMAswCQYDVR0TBAIwADAKBggqhkjOPQQDAgNIADBFAiEA
jwXFriBpXJO958XU30GObNcXoy6BY7JIfv01NzbtKw8CIGGPmHlkK6XTq13maG7F
R2q8TsjWJlYLWDQ6WOM1hYzn
-----END CERTIFICATE REQUEST-----
