Certificate:
    Data:
        Version: 3 (0x2)
        Serial Number:
            6e:7a:a7:6f:9a:5e:ca:39:ea:38:82:3d:c3:8f:e5:9f:e2:f2:ce:ea
        Signature Algorithm: ecdsa-with-SHA256
        Issuer: C = FR, L = Limoges, O = CRYPTIS, OU = SecuTIC, CN = localhost
        Validity
            Not Before: Apr 23 11:38:55 2024 GMT
            Not After : May 23 11:38:55 2024 GMT
        Subject: C = FR, L = Limoges, O = CRYPTIS, OU = SecuTIC, CN = localhost
        Subject Public Key Info:
            Public Key Algorithm: id-ecPublicKey
                Public-Key: (256 bit)
                pub:
                    04:a7:6c:b3:d4:99:70:6b:4c:65:37:34:a5:55:d7:
                    5b:75:01:fd:52:cb:3a:bf:e9:03:c2:13:0f:11:b6:
                    fc:da:70:77:1f:fa:c4:47:d7:b4:e2:f2:8f:e9:48:
                    fa:8f:27:99:39:5a:b5:e4:4e:10:c7:0d:75:ff:4e:
                    67:6a:17:d3:25
                ASN1 OID: prime256v1
                NIST CURVE: P-256
        X509v3 extensions:
            X509v3 Basic Constraints: 
                CA:TRUE
    Signature Algorithm: ecdsa-with-SHA256
         30:46:02:21:00:bf:a9:13:cb:31:48:ae:ea:eb:d1:a2:da:8c:
         31:c5:ee:01:57:e1:4b:97:4e:01:57:00:e7:2f:42:e1:4c:fa:
         26:02:21:00:9b:70:09:20:b6:d0:11:26:27:03:d3:12:40:bf:
         05:43:72:58:49:af:f7:4f:d0:ab:db:64:c7:94:0c:a7:88:da
-----BEGIN CERTIFICATE-----
MIIBwTCCAWagAwIBAgIUbnqnb5peyjnqOII9w4/ln+LyzuowCgYIKoZIzj0EAwIw
VzELMAkGA1UEBhMCRlIxEDAOBgNVBAcMB0xpbW9nZXMxEDAOBgNVBAoMB0NSWVBU
SVMxEDAOBgNVBAsMB1NlY3VUSUMxEjAQBgNVBAMMCWxvY2FsaG9zdDAeFw0yNDA0
MjMxMTM4NTVaFw0yNDA1MjMxMTM4NTVaMFcxCzAJBgNVBAYTAkZSMRAwDgYDVQQH
DAdMaW1vZ2VzMRAwDgYDVQQKDAdDUllQVElTMRAwDgYDVQQLDAdTZWN1VElDMRIw
EAYDVQQDDAlsb2NhbGhvc3QwWTATBgcqhkjOPQIBBggqhkjOPQMBBwNCAASnbLPU
mXBrTGU3NKVV11t1Af1Syzq/6QPCEw8RtvzacHcf+sRH17Ti8o/pSPqPJ5k5WrXk
ThDHDXX/TmdqF9MloxAwDjAMBgNVHRMEBTADAQH/MAoGCCqGSM49BAMCA0kAMEYC
IQC/qRPLMUiu6uvRotqMMcXuAVfhS5dOAVcA5y9C4Uz6JgIhAJtwCSC20BEmJwPT
EkC/BUNyWEmv90/Qq9tkx5QMp4ja
-----END CERTIFICATE-----
