Certificate:
    Data:
        Version: 3 (0x2)
        Serial Number:
            7e:1a:fa:ec:b9:df:de:15:a5:78:71:9b:b8:c6:7a:b1:6d:cc:cb:d2
        Signature Algorithm: ecdsa-with-SHA256
        Issuer: C = FR, L = Limoges, O = CRYPTIS, OU = SecuTIC, CN = localhost
        Validity
            Not Before: Apr 29 08:55:34 2024 GMT
            Not After : May 29 08:55:34 2024 GMT
        Subject: C = FR, L = Limoges, O = CRYPTIS, OU = SecuTIC, CN = localhost
        Subject Public Key Info:
            Public Key Algorithm: id-ecPublicKey
                Public-Key: (256 bit)
                pub:
                    04:ad:68:1e:89:d0:dc:61:dd:f7:4a:c1:39:77:2b:
                    f7:63:d7:93:c9:77:5c:9b:bb:80:ac:6d:ea:52:a9:
                    05:f4:f8:9f:e1:05:da:7b:11:2a:03:0a:80:d1:cb:
                    ca:42:1b:51:90:7e:91:f9:ea:2f:71:15:1e:5e:01:
                    5f:10:86:33:9c
                ASN1 OID: prime256v1
                NIST CURVE: P-256
        X509v3 extensions:
            X509v3 Basic Constraints: 
                CA:TRUE
    Signature Algorithm: ecdsa-with-SHA256
         30:46:02:21:00:d7:79:46:8b:42:de:cd:7b:81:12:8f:c0:05:
         d4:32:ab:f3:a0:e6:18:90:3d:17:df:bb:85:2b:21:0b:7f:f0:
         19:02:21:00:db:7a:d8:8b:10:19:e2:4b:b1:dd:7a:a6:7e:4f:
         a6:1a:f3:52:d4:0b:a6:94:1c:26:17:16:bc:c8:34:1c:1d:e7
-----BEGIN CERTIFICATE-----
MIIBwTCCAWagAwIBAgIUfhr67Lnf3hWleHGbuMZ6sW3My9IwCgYIKoZIzj0EAwIw
VzELMAkGA1UEBhMCRlIxEDAOBgNVBAcMB0xpbW9nZXMxEDAOBgNVBAoMB0NSWVBU
SVMxEDAOBgNVBAsMB1NlY3VUSUMxEjAQBgNVBAMMCWxvY2FsaG9zdDAeFw0yNDA0
MjkwODU1MzRaFw0yNDA1MjkwODU1MzRaMFcxCzAJBgNVBAYTAkZSMRAwDgYDVQQH
DAdMaW1vZ2VzMRAwDgYDVQQKDAdDUllQVElTMRAwDgYDVQQLDAdTZWN1VElDMRIw
EAYDVQQDDAlsb2NhbGhvc3QwWTATBgcqhkjOPQIBBggqhkjOPQMBBwNCAAStaB6J
0Nxh3fdKwTl3K/dj15PJd1ybu4CsbepSqQX0+J/hBdp7ESoDCoDRy8pCG1GQfpH5
6i9xFR5eAV8QhjOcoxAwDjAMBgNVHRMEBTADAQH/MAoGCCqGSM49BAMCA0kAMEYC
IQDXeUaLQt7Ne4ESj8AF1DKr86DmGJA9F9+7hSshC3/wGQIhANt62IsQGeJLsd16
pn5PphrzUtQLppQcJhcWvMg0HB3n
-----END CERTIFICATE-----
