Certificate Request:
    Data:
        Version: 1 (0x0)
        Subject: C = FR, L = Limoges, O = CRYPTIS, OU = SecuTIC, CN = localhost
        Subject Public Key Info:
            Public Key Algorithm: id-ecPublicKey
                Public-Key: (256 bit)
                pub:
                    04:5f:68:86:80:53:40:2a:4b:0f:8a:90:d3:ac:4b:
                    55:f4:02:ec:10:af:3a:21:da:9e:0d:9f:f0:63:f4:
                    2f:55:c5:34:92:25:3e:b5:ce:1f:f9:9c:15:ed:34:
                    07:70:da:e7:a3:96:d8:ce:72:3d:87:ac:13:f1:91:
                    e3:48:d2:7a:d5
                ASN1 OID: prime256v1
                NIST CURVE: P-256
        Attributes:
        Requested Extensions:
            X509v3 Basic Constraints: 
                CA:FALSE
    Signature Algorithm: ecdsa-with-SHA256
         30:44:02:20:52:4b:9b:b3:f9:50:c3:46:33:16:e5:7c:e0:b2:
         ba:b4:75:af:91:33:fe:fe:51:d5:1d:be:ac:64:55:a9:94:fe:
         02:20:0c:93:a6:16:7d:29:05:61:d0:bb:1f:3c:5b:55:27:61:
         cf:6b:4a:77:8a:1d:81:f5:34:99:83:35:29:f9:07:3e
-----BEGIN CERTIFICATE REQUEST-----
MIIBLTCB1QIBADBXMQswCQYDVQQGEwJGUjEQMA4GA1UEBwwHTGltb2dlczEQMA4G
A1UECgwHQ1JZUFRJUzEQMA4GA1UECwwHU2VjdVRJQzESMBAGA1UEAwwJbG9jYWxo
b3N0MFkwEwYHKoZIzj0CAQYIKoZIzj0DAQcDQgAEX2iGgFNAKksPipDTrEtV9ALs
EK86IdqeDZ/wY/QvVcU0kiU+tc4f+ZwV7TQHcNrno5bYznI9h6wT8ZHjSNJ61aAc
MBoGCSqGSIb3DQEJDjENMAswCQYDVR0TBAIwADAKBggqhkjOPQQDAgNHADBEAiBS
S5uz+VDDRjMW5Xzgsrq0da+RM/7+UdUdvqxkVamU/gIgDJOmFn0pBWHQux88W1Un
Yc9rSneKHYH1NJmDNSn5Bz4=
-----END CERTIFICATE REQUEST-----
