-----BEGIN EC PARAMETERS-----
BggqhkjOPQMBBw==
-----END EC PARAMETERS-----
-----BEGIN EC PRIVATE KEY-----
MHcCAQEEIFKEi+aOObYouwTku8WMJgUlqWGmUOxrUEB98nsfIRp+oAoGCCqGSM49
AwEHoUQDQgAEEBlI8LRBqEg5WwEpNd+5+4Ck1xmofNPfgAtf1L+uOE4EicRJ3f8p
7al5Wx6QyytcPKuM+kESwGunKCWhgb9Q5A==
-----END EC PRIVATE KEY-----
Certificate:
    Data:
        Version: 3 (0x2)
        Serial Number:
            44:41:2d:d1:db:28:33:b8:04:8e:92:3a:8d:03:3b:66:0e:ff:53:e6
        Signature Algorithm: ecdsa-with-SHA256
        Issuer: C = FR, L = Limoges, O = CRYPTIS, OU = SecuTIC, CN = localhost
        Validity
            Not Before: Apr 29 08:55:34 2024 GMT
            Not After : Apr 27 08:55:34 2034 GMT
        Subject: C = FR, L = Limoges, O = CRYPTIS, OU = SecuTIC, CN = localhost
        Subject Public Key Info:
            Public Key Algorithm: id-ecPublicKey
                Public-Key: (256 bit)
                pub:
                    04:10:19:48:f0:b4:41:a8:48:39:5b:01:29:35:df:
                    b9:fb:80:a4:d7:19:a8:7c:d3:df:80:0b:5f:d4:bf:
                    ae:38:4e:04:89:c4:49:dd:ff:29:ed:a9:79:5b:1e:
                    90:cb:2b:5c:3c:ab:8c:fa:41:12:c0:6b:a7:28:25:
                    a1:81:bf:50:e4
                ASN1 OID: prime256v1
                NIST CURVE: P-256
        X509v3 extensions:
            X509v3 Basic Constraints: critical
                CA:FALSE
    Signature Algorithm: ecdsa-with-SHA256
         30:46:02:21:00:ba:ca:e9:9f:25:b1:f0:48:70:ed:61:11:fa:
         e7:25:82:01:36:e0:73:0d:45:6e:46:f2:3e:f7:31:c4:bc:1b:
         a7:02:21:00:dd:79:1f:d3:6e:37:8e:58:16:0f:e4:0f:e6:10:
         c0:9f:60:fb:7a:06:c8:6d:0f:f5:ac:af:17:b2:b5:2d:c1:37
-----BEGIN CERTIFICATE-----
MIIBwTCCAWagAwIBAgIUREEt0dsoM7gEjpI6jQM7Zg7/U+YwCgYIKoZIzj0EAwIw
VzELMAkGA1UEBhMCRlIxEDAOBgNVBAcMB0xpbW9nZXMxEDAOBgNVBAoMB0NSWVBU
SVMxEDAOBgNVBAsMB1NlY3VUSUMxEjAQBgNVBAMMCWxvY2FsaG9zdDAeFw0yNDA0
MjkwODU1MzRaFw0zNDA0MjcwODU1MzRaMFcxCzAJBgNVBAYTAkZSMRAwDgYDVQQH
DAdMaW1vZ2VzMRAwDgYDVQQKDAdDUllQVElTMRAwDgYDVQQLDAdTZWN1VElDMRIw
EAYDVQQDDAlsb2NhbGhvc3QwWTATBgcqhkjOPQIBBggqhkjOPQMBBwNCAAQQGUjw
tEGoSDlbASk137n7gKTXGah809+AC1/Uv644TgSJxEnd/yntqXlbHpDLK1w8q4z6
QRLAa6coJaGBv1DkoxAwDjAMBgNVHRMBAf8EAjAAMAoGCCqGSM49BAMCA0kAMEYC
IQC6yumfJbHwSHDtYRH65yWCATbgcw1FbkbyPvcxxLwbpwIhAN15H9NuN45YFg/k
D+YQwJ9g+3oGyG0P9ayvF7K1LcE3
-----END CERTIFICATE-----
