Certificate:
    Data:
        Version: 3 (0x2)
        Serial Number: 1 (0x1)
        Signature Algorithm: sha256WithRSAEncryption
        Issuer: C=FR, ST=FRANCE, L=Limoges, O=Master 1, OU=Service de Certification, CN=Mon AC du Master 1
        Validity
            Not Before: May  6 16:15:30 2024 GMT
            Not After : May  4 16:15:30 2034 GMT
        Subject: CN=Jean DUPONT/emailAddress=jean.dupont@etu.unilim.fr
        Subject Public Key Info:
            Public Key Algorithm: rsaEncryption
                RSA Public-Key: (2048 bit)
                Modulus:
                    00:c0:93:7f:ac:a0:a7:08:da:ce:9f:6a:6b:c1:e5:
                    6b:d4:cb:c2:f4:95:e2:a3:a8:56:18:3d:ab:b3:09:
                    a7:71:8c:44:f6:18:31:46:52:e2:fb:04:6e:92:bf:
                    27:96:38:ee:9b:cc:5d:34:d3:05:b7:dd:c4:d7:62:
                    89:12:92:f7:78:53:e6:c0:df:ae:b5:78:6f:c8:5b:
                    15:2a:d2:21:ce:58:c4:2d:06:93:b3:8e:dd:7e:2c:
                    3c:39:26:32:48:fd:21:f0:8a:63:97:ea:c6:d1:5c:
                    25:c9:ea:05:2c:4e:22:d0:c8:1d:5f:d1:ce:d4:c3:
                    47:c2:94:0e:84:f8:91:70:94:aa:11:08:59:1a:bf:
                    c0:b7:95:2a:12:b9:98:00:c1:eb:21:c4:91:90:a0:
                    db:6a:d2:52:f2:6d:4e:a4:af:e1:d7:68:32:87:34:
                    39:72:97:25:61:24:d6:e1:6b:f5:7f:85:91:1c:ed:
                    cc:0d:ce:c6:55:0c:fa:22:6a:a8:0c:5b:84:21:09:
                    f5:63:61:6b:03:1d:8c:ab:70:97:8f:33:45:53:0b:
                    26:6e:f6:66:51:47:eb:97:52:8a:5f:3d:09:f6:70:
                    d5:90:28:40:b6:b6:c0:a5:07:44:a9:9d:8d:71:ec:
                    9b:82:59:20:ca:42:91:5b:10:ba:07:d1:f9:05:b7:
                    2d:b5
                Exponent: 65537 (0x10001)
        X509v3 extensions:
            X509v3 Subject Alternative Name: 
                email:jean.dupont@etu.unilim.fr
            X509v3 Basic Constraints: critical
                CA:FALSE
            X509v3 Authority Key Identifier: 
                keyid:33:E1:4F:E5:3B:37:0D:3F:BC:5F:47:F7:70:BF:78:EE:21:2C:0E:A9

            X509v3 Subject Key Identifier: 
                6F:71:B9:8D:69:45:78:15:44:DF:90:7B:36:00:3B:17:16:A5:95:3F
            X509v3 Extended Key Usage: 
                TLS Web Client Authentication, E-mail Protection
    Signature Algorithm: sha256WithRSAEncryption
         57:96:75:f9:37:19:a4:80:ad:2f:6b:44:d8:a2:92:a0:79:b3:
         f8:d2:01:86:af:a2:61:37:1e:08:01:8c:2f:db:22:43:2b:72:
         18:64:81:e2:eb:23:15:45:5d:02:9e:05:96:2c:cc:d0:9c:17:
         3c:0e:97:50:f1:80:41:da:a7:ac:13:88:8b:a3:ee:0e:8c:fa:
         69:17:01:68:c5:8f:10:52:dd:ae:4f:3b:e9:39:5f:94:8d:47:
         74:ea:1c:7d:2e:6a:3f:35:e2:cb:94:9f:a2:88:63:b2:b2:75:
         f4:89:ba:db:35:ec:64:25:94:0d:3c:b7:8c:1f:f7:66:01:0c:
         73:8f:9a:b5:9d:b3:86:66:06:9b:d1:d8:c5:be:f4:d6:46:63:
         06:fc:e6:c6:88:b0:b5:8d:92:6f:a1:ef:63:f0:d7:fb:ec:05:
         c1:aa:ea:3f:2c:c5:67:4e:2e:bf:ab:7a:25:2a:59:f0:46:33:
         9a:c4:9e:6d:c6:3e:bd:3c:f7:0e:1a:32:a2:59:9d:fc:c5:05:
         64:9c:bc:d3:9f:06:a8:74:5f:21:fb:2a:66:6a:55:f3:f6:52:
         82:c9:55:2d:da:4c:a9:9f:b3:2a:8d:ff:7d:45:c8:67:02:3d:
         1e:67:9f:f7:c4:b4:ab:ed:c5:63:2b:77:f5:55:99:4f:84:fc:
         b3:3e:3f:21:f0:ec:22:1f:88:81:6e:63:5c:ad:20:91:e2:5f:
         16:6a:4e:f3:8b:c2:85:5c:a8:03:1d:4b:6b:b0:0a:ef:24:94:
         03:5f:d6:c6:2d:a7:b9:c9:26:8f:6a:22:a9:bc:cd:56:c3:86:
         85:ff:ab:df:1d:0e:a1:95:3c:64:1f:98:80:67:a0:bc:bc:be:
         84:e3:4f:70:aa:5c:b6:44:a2:f4:80:45:31:d2:4b:59:11:47:
         f8:be:8d:85:bb:6b:d1:ad:58:05:f4:0c:de:9d:30:a4:d0:5f:
         3f:1c:3d:bd:a1:7f:6d:b4:fb:70:f1:71:74:b5:89:77:ac:6e:
         c6:93:4c:ac:32:cd:ca:79:09:5c:bf:38:63:2f:56:de:61:21:
         80:5f:f0:b8:1a:01:e1:28:a0:e2:8e:70:e6:48:2e:1a:35:2c:
         10:e4:15:ff:48:ff:fa:32:e6:01:c7:f7:25:40:d1:7a:43:df:
         f6:63:a5:21:a2:a5:fc:14:50:19:8e:7d:50:e2:0d:35:5b:b3:
         91:28:63:36:fc:35:39:39:70:cd:2d:bf:3b:ed:8a:90:9b:81:
         dd:cf:c7:03:4c:aa:81:f6:15:4b:4d:17:1d:a7:8a:b8:45:8e:
         88:95:f9:e4:9b:44:1c:66:14:f9:ff:16:f1:26:15:35:7c:32:
         0b:84:be:d3:dd:fb:a5:30
-----BEGIN CERTIFICATE-----
MIIE1jCCAr6gAwIBAgIBATANBgkqhkiG9w0BAQsFADCBgzELMAkGA1UEBhMCRlIx
DzANBgNVBAgTBkZSQU5DRTEQMA4GA1UEBxMHTGltb2dlczERMA8GA1UEChMITWFz
dGVyIDExITAfBgNVBAsTGFNlcnZpY2UgZGUgQ2VydGlmaWNhdGlvbjEbMBkGA1UE
AxMSTW9uIEFDIGR1IE1hc3RlciAxMB4XDTI0MDUwNjE2MTUzMFoXDTM0MDUwNDE2
MTUzMFowQDEUMBIGA1UEAxMLSmVhbiBEVVBPTlQxKDAmBgkqhkiG9w0BCQEWGWpl
YW4uZHVwb250QGV0dS51bmlsaW0uZnIwggEiMA0GCSqGSIb3DQEBAQUAA4IBDwAw
ggEKAoIBAQDAk3+soKcI2s6famvB5WvUy8L0leKjqFYYPauzCadxjET2GDFGUuL7
BG6SvyeWOO6bzF000wW33cTXYokSkvd4U+bA3661eG/IWxUq0iHOWMQtBpOzjt1+
LDw5JjJI/SHwimOX6sbRXCXJ6gUsTiLQyB1f0c7Uw0fClA6E+JFwlKoRCFkav8C3
lSoSuZgAweshxJGQoNtq0lLybU6kr+HXaDKHNDlylyVhJNbha/V/hZEc7cwNzsZV
DPoiaqgMW4QhCfVjYWsDHYyrcJePM0VTCyZu9mZRR+uXUopfPQn2cNWQKEC2tsCl
B0SpnY1x7JuCWSDKQpFbELoH0fkFty21AgMBAAGjgZYwgZMwJAYDVR0RBB0wG4EZ
amVhbi5kdXBvbnRAZXR1LnVuaWxpbS5mcjAMBgNVHRMBAf8EAjAAMB8GA1UdIwQY
MBaAFDPhT+U7Nw0/vF9H93C/eO4hLA6pMB0GA1UdDgQWBBRvcbmNaUV4FUTfkHs2
ADsXFqWVPzAdBgNVHSUEFjAUBggrBgEFBQcDAgYIKwYBBQUHAwQwDQYJKoZIhvcN
AQELBQADggIBAFeWdfk3GaSArS9rRNiikqB5s/jSAYavomE3HggBjC/bIkMrchhk
geLrIxVFXQKeBZYszNCcFzwOl1DxgEHap6wTiIuj7g6M+mkXAWjFjxBS3a5PO+k5
X5SNR3TqHH0uaj814suUn6KIY7KydfSJuts17GQllA08t4wf92YBDHOPmrWds4Zm
BpvR2MW+9NZGYwb85saIsLWNkm+h72Pw1/vsBcGq6j8sxWdOLr+reiUqWfBGM5rE
nm3GPr089w4aMqJZnfzFBWScvNOfBqh0XyH7KmZqVfP2UoLJVS3aTKmfsyqN/31F
yGcCPR5nn/fEtKvtxWMrd/VVmU+E/LM+PyHw7CIfiIFuY1ytIJHiXxZqTvOLwoVc
qAMdS2uwCu8klANf1sYtp7nJJo9qIqm8zVbDhoX/q98dDqGVPGQfmIBnoLy8voTj
T3CqXLZEovSARTHSS1kRR/i+jYW7a9GtWAX0DN6dMKTQXz8cPb2hf220+3DxcXS1
iXesbsaTTKwyzcp5CVy/OGMvVt5hIYBf8LgaAeEooOKOcOZILho1LBDkFf9I//oy
5gHH9yVA0XpD3/ZjpSGipfwUUBmOfVDiDTVbs5EoYzb8NTk5cM0tvzvtipCbgd3P
xwNMqoH2FUtNFx2nirhFjoiV+eSbRBxmFPn/FvEmFTV8MguEvtPd+6Uw
-----END CERTIFICATE-----
